target datalayout = "e-m:e-p270:32:32-p271:32:32-p272:64:64-i64:64-i128:128-f80:128-n8:16:32:64-S128"
target triple = "x86_64-pc-linux-gnu"

@hf_xdmcp_authorization_name = internal global i32 0, align 4
@ett_xdmcp_authorization_names = internal global i32 0, align 4
@.str.90 = private unnamed_addr constant [25 x i8] c"Authorization names (%d)\00", align 1

; Function Attrs: null_pointer_is_valid sspstrong uwtable
define internal i32 @xdmcp_add_string(ptr noundef %0, i32 noundef %1, ptr noundef %2, i32 noundef %3) #0 {
  %5 = alloca ptr, align 8
  %6 = alloca i32, align 4
  %7 = alloca ptr, align 8
  %8 = alloca i32, align 4
  %9 = alloca ptr, align 8
  %10 = alloca i32, align 4
  store ptr %0, ptr %5, align 8
  store i32 %1, ptr %6, align 4
  store ptr %2, ptr %7, align 8
  store i32 %3, ptr %8, align 4
  call void @llvm.lifetime.start.p0(i64 8, ptr %9) #3
  call void @llvm.lifetime.start.p0(i64 4, ptr %10) #3
  %11 = load ptr, ptr %7, align 8
  %12 = load i32, ptr %8, align 4
  %13 = call zeroext i16 @tvb_get_ntohs(ptr noundef %11, i32 noundef %12)
  %14 = zext i16 %13 to i32
  store i32 %14, ptr %10, align 4
  %15 = call ptr @wmem_packet_scope()
  %16 = load ptr, ptr %7, align 8
  %17 = load i32, ptr %8, align 4
  %18 = add i32 %17, 2
  %19 = load i32, ptr %10, align 4
  %20 = call ptr @tvb_get_string_enc(ptr noundef %15, ptr noundef %16, i32 noundef %18, i32 noundef %19, i32 noundef 0)
  store ptr %20, ptr %9, align 8
  %21 = load ptr, ptr %5, align 8
  %22 = load i32, ptr %6, align 4
  %23 = load ptr, ptr %7, align 8
  %24 = load i32, ptr %8, align 4
  %25 = load i32, ptr %10, align 4
  %26 = add i32 %25, 2
  %27 = load ptr, ptr %9, align 8
  %28 = call ptr @proto_tree_add_string(ptr noundef %21, i32 noundef %22, ptr noundef %23, i32 noundef %24, i32 noundef %26, ptr noundef %27)
  %29 = load i32, ptr %10, align 4
  %30 = add i32 %29, 2
  call void @llvm.lifetime.end.p0(i64 4, ptr %10) #3
  call void @llvm.lifetime.end.p0(i64 8, ptr %9) #3
  ret i32 %30
}

; Function Attrs: null_pointer_is_valid sspstrong uwtable
define internal i32 @xdmcp_add_authorization_names(ptr noundef %0, ptr noundef %1, i32 noundef %2) #0 {
  %4 = alloca ptr, align 8
  %5 = alloca ptr, align 8
  %6 = alloca i32, align 4
  %7 = alloca ptr, align 8
  %8 = alloca ptr, align 8
  %9 = alloca i32, align 4
  %10 = alloca i32, align 4
  store ptr %0, ptr %4, align 8
  store ptr %1, ptr %5, align 8
  store i32 %2, ptr %6, align 4
  call void @llvm.lifetime.start.p0(i64 8, ptr %7) #3
  call void @llvm.lifetime.start.p0(i64 8, ptr %8) #3
  call void @llvm.lifetime.start.p0(i64 4, ptr %9) #3
  call void @llvm.lifetime.start.p0(i64 4, ptr %10) #3
  %11 = load i32, ptr %6, align 4
  store i32 %11, ptr %10, align 4
  %12 = load ptr, ptr %5, align 8
  %13 = load i32, ptr %6, align 4
  %14 = call zeroext i8 @tvb_get_uint8(ptr noundef %12, i32 noundef %13)
  %15 = zext i8 %14 to i32
  store i32 %15, ptr %9, align 4
  %16 = load ptr, ptr %4, align 8
  %17 = load ptr, ptr %5, align 8
  %18 = load i32, ptr %10, align 4
  %19 = load i32, ptr @ett_xdmcp_authorization_names, align 4
  %20 = load i32, ptr %9, align 4
  %21 = call ptr (ptr, ptr, i32, i32, i32, ptr, ptr, ...) @proto_tree_add_subtree_format(ptr noundef %16, ptr noundef %17, i32 noundef %18, i32 noundef -1, i32 noundef %19, ptr noundef %8, ptr noundef @.str.90, i32 noundef %20)
  store ptr %21, ptr %7, align 8
  %22 = load ptr, ptr %5, align 8
  %23 = load i32, ptr %6, align 4
  %24 = call zeroext i8 @tvb_get_uint8(ptr noundef %22, i32 noundef %23)
  %25 = zext i8 %24 to i32
  store i32 %25, ptr %9, align 4
  %26 = load i32, ptr %6, align 4
  %27 = add i32 %26, 1
  store i32 %27, ptr %6, align 4
  br label %28

28:                                               ; preds = %31, %3
  %29 = load i32, ptr %9, align 4
  %30 = icmp sgt i32 %29, 0
  br i1 %30, label %31, label %41

31:                                               ; preds = %28
  %32 = load ptr, ptr %7, align 8
  %33 = load i32, ptr @hf_xdmcp_authorization_name, align 4
  %34 = load ptr, ptr %5, align 8
  %35 = load i32, ptr %6, align 4
  %36 = call i32 @xdmcp_add_string(ptr noundef %32, i32 noundef %33, ptr noundef %34, i32 noundef %35)
  %37 = load i32, ptr %6, align 4
  %38 = add i32 %37, %36
  store i32 %38, ptr %6, align 4
  %39 = load i32, ptr %9, align 4
  %40 = add i32 %39, -1
  store i32 %40, ptr %9, align 4
  br label %28, !llvm.loop !9

41:                                               ; preds = %28
  %42 = load ptr, ptr %8, align 8
  %43 = load i32, ptr %6, align 4
  %44 = load i32, ptr %10, align 4
  %45 = sub i32 %43, %44
  call void @proto_item_set_len(ptr noundef %42, i32 noundef %45)
  %46 = load i32, ptr %6, align 4
  %47 = load i32, ptr %10, align 4
  %48 = sub i32 %46, %47
  call void @llvm.lifetime.end.p0(i64 4, ptr %10) #3
  call void @llvm.lifetime.end.p0(i64 4, ptr %9) #3
  call void @llvm.lifetime.end.p0(i64 8, ptr %8) #3
  call void @llvm.lifetime.end.p0(i64 8, ptr %7) #3
  ret i32 %48
}