; Function Attrs: null_pointer_is_valid sspstrong uwtable
define internal fastcc noundef i32 @xdmcp_add_authorization_names(ptr noundef %0, ptr noundef %1, i32 noundef %2) unnamed_addr #0 {
  %4 = alloca ptr, align 8
  call void @llvm.lifetime.start.p0(i64 8, ptr nonnull %4) #3
  %5 = tail call zeroext i8 @tvb_get_uint8(ptr noundef %1, i32 noundef %2)
  %6 = zext i8 %5 to i32
  %7 = load i32, ptr @ett_xdmcp_authorization_names, align 4
  %8 = call ptr (ptr, ptr, i32, i32, i32, ptr, ptr, ...) @proto_tree_add_subtree_format(ptr noundef %0, ptr noundef %1, i32 noundef %2, i32 noundef -1, i32 noundef %7, ptr noundef nonnull %4, ptr noundef nonnull @.str.90, i32 noundef %6)
  %9 = call zeroext i8 @tvb_get_uint8(ptr noundef %1, i32 noundef %2)
  %10 = add i32 %2, 1
  %.not = icmp eq i8 %9, 0
  br i1 %.not, label %._crit_edge, label %.lr.ph.preheader

.lr.ph.preheader:                                 ; preds = %3
  %11 = zext i8 %9 to i32
  br label %.lr.ph

.lr.ph:                                           ; preds = %.lr.ph.preheader, %.lr.ph
  %.021 = phi i32 [ %20, %.lr.ph ], [ %10, %.lr.ph.preheader ]
  %.01920 = phi i32 [ %21, %.lr.ph ], [ %11, %.lr.ph.preheader ]
  %12 = load i32, ptr @hf_xdmcp_authorization_name, align 4
  %13 = call zeroext i16 @tvb_get_ntohs(ptr noundef %1, i32 noundef %.021)
  %14 = zext i16 %13 to i32
  %15 = call ptr @wmem_packet_scope()
  %16 = add i32 %.021, 2
  %17 = call ptr @tvb_get_string_enc(ptr noundef %15, ptr noundef %1, i32 noundef %16, i32 noundef %14, i32 noundef 0)
  %18 = add nuw nsw i32 %14, 2
  %19 = call ptr @proto_tree_add_string(ptr noundef %8, i32 noundef %12, ptr noundef %1, i32 noundef %.021, i32 noundef %18, ptr noundef %17)
  %20 = add i32 %18, %.021
  %21 = add nsw i32 %.01920, -1
  %22 = icmp samesign ugt i32 %.01920, 1
  br i1 %22, label %.lr.ph, label %._crit_edge, !llvm.loop !9

._crit_edge:                                      ; preds = %.lr.ph, %3
  %.0.lcssa = phi i32 [ %10, %3 ], [ %20, %.lr.ph ]
  %23 = load ptr, ptr %4, align 8
  %24 = sub i32 %.0.lcssa, %2
  call void @proto_item_set_len(ptr noundef %23, i32 noundef %24)
  call void @llvm.lifetime.end.p0(i64 8, ptr nonnull %4) #3
  ret i32 %24
}